target datalayout = "e-m:e-p270:32:32-p271:32:32-p272:64:64-i64:64-i128:128-f80:128-n8:16:32:64-S128"
target triple = "x86_64-pc-linux-gnu"

%struct.TS_verify_ctx = type { i32, ptr, ptr, ptr, ptr, ptr, i32, ptr, ptr, ptr }

@.str = private unnamed_addr constant [37 x i8] c"../openssl/crypto/ts/ts_verify_ctx.c\00", align 1

; Function Attrs: nounwind uwtable
define ptr @TS_VERIFY_CTX_set_imprint(ptr noundef %0, ptr noundef %1, i64 noundef %2) #0 {
  %4 = alloca ptr, align 8
  %5 = alloca ptr, align 8
  %6 = alloca i64, align 8
  store ptr %0, ptr %4, align 8, !tbaa !3
  store ptr %1, ptr %5, align 8, !tbaa !31
  store i64 %2, ptr %6, align 8, !tbaa !32
  %7 = load ptr, ptr %4, align 8, !tbaa !3
  %8 = getelementptr inbounds nuw %struct.TS_verify_ctx, ptr %7, i32 0, i32 5
  %9 = load ptr, ptr %8, align 8, !tbaa !22
  call void @CRYPTO_free(ptr noundef %9, ptr noundef @.str, i32 noundef 99)
  %10 = load ptr, ptr %5, align 8, !tbaa !31
  %11 = load ptr, ptr %4, align 8, !tbaa !3
  %12 = getelementptr inbounds nuw %struct.TS_verify_ctx, ptr %11, i32 0, i32 5
  store ptr %10, ptr %12, align 8, !tbaa !22
  %13 = load i64, ptr %6, align 8, !tbaa !32
  %14 = trunc i64 %13 to i32
  %15 = load ptr, ptr %4, align 8, !tbaa !3
  %16 = getelementptr inbounds nuw %struct.TS_verify_ctx, ptr %15, i32 0, i32 6
  store i32 %14, ptr %16, align 8, !tbaa !34
  %17 = load ptr, ptr %4, align 8, !tbaa !3
  %18 = getelementptr inbounds nuw %struct.TS_verify_ctx, ptr %17, i32 0, i32 5
  %19 = load ptr, ptr %18, align 8, !tbaa !22
  ret ptr %19
}